target datalayout = "e-m:e-p270:32:32-p271:32:32-p272:64:64-i64:64-i128:128-f80:128-n8:16:32:64-S128"
target triple = "x86_64-pc-linux-gnu"

@.str.12 = private unnamed_addr constant [11 x i8] c"ML-KEM-512\00", align 1
@.str.13 = private unnamed_addr constant [11 x i8] c"ML-KEM-768\00", align 1
@.str.14 = private unnamed_addr constant [12 x i8] c"ML-KEM-1024\00", align 1
@.str.15 = private unnamed_addr constant [10 x i8] c"ML-KEM-13\00", align 1
@stderr = external global ptr, align 8
@.str.16 = private unnamed_addr constant [24 x i8] c"Failed to generate ctx\0A\00", align 1
@.str.17 = private unnamed_addr constant [27 x i8] c"Failed to init keygen ctx\0A\00", align 1
@.str.18 = private unnamed_addr constant [33 x i8] c"Failed to generate new real key\0A\00", align 1

; Function Attrs: inlinehint nounwind uwtable
define internal zeroext i16 @__uint16_identity(i16 noundef zeroext %0) #3 {
  %2 = alloca i16, align 2
  store i16 %0, ptr %2, align 2, !tbaa !37
  %3 = load i16, ptr %2, align 2, !tbaa !37
  ret i16 %3
}

; Function Attrs: inlinehint nounwind uwtable
define internal ptr @OPENSSL_load_u16_le(ptr noundef %0, ptr noundef %1) #3 {
  %3 = alloca ptr, align 8
  %4 = alloca ptr, align 8
  %5 = alloca i16, align 2
  store ptr %0, ptr %3, align 8, !tbaa !39
  store ptr %1, ptr %4, align 8, !tbaa !11
  call void @llvm.lifetime.start.p0(i64 2, ptr %5) #7
  %6 = load ptr, ptr %4, align 8, !tbaa !11
  call void @llvm.memcpy.p0.p0.i64(ptr align 2 %5, ptr align 1 %6, i64 2, i1 false)
  %7 = load i16, ptr %5, align 2, !tbaa !37
  %8 = call zeroext i16 @__uint16_identity(i16 noundef zeroext %7)
  %9 = load ptr, ptr %3, align 8, !tbaa !39
  store i16 %8, ptr %9, align 2, !tbaa !37
  %10 = load ptr, ptr %4, align 8, !tbaa !11
  %11 = getelementptr inbounds i8, ptr %10, i64 2
  call void @llvm.lifetime.end.p0(i64 2, ptr %5) #7
  ret ptr %11
}

; Function Attrs: nounwind uwtable
define internal i32 @select_keytype_and_size(ptr noundef %0, ptr noundef %1, ptr noundef %2, ptr noundef %3, i32 noundef %4) #0 {
  %6 = alloca i32, align 4
  %7 = alloca ptr, align 8
  %8 = alloca ptr, align 8
  %9 = alloca ptr, align 8
  %10 = alloca ptr, align 8
  %11 = alloca i32, align 4
  %12 = alloca i16, align 2
  %13 = alloca i16, align 2
  %14 = alloca i32, align 4
  store ptr %0, ptr %7, align 8, !tbaa !23
  store ptr %1, ptr %8, align 8, !tbaa !21
  store ptr %2, ptr %9, align 8, !tbaa !23
  store ptr %3, ptr %10, align 8, !tbaa !21
  store i32 %4, ptr %11, align 4, !tbaa !25
  call void @llvm.lifetime.start.p0(i64 2, ptr %12) #7
  call void @llvm.lifetime.start.p0(i64 2, ptr %13) #7
  store i16 6, ptr %13, align 2, !tbaa !37
  %15 = load ptr, ptr %7, align 8, !tbaa !23
  %16 = load ptr, ptr %15, align 8, !tbaa !11
  %17 = call ptr @OPENSSL_load_u16_le(ptr noundef %12, ptr noundef %16)
  %18 = load ptr, ptr %7, align 8, !tbaa !23
  store ptr %17, ptr %18, align 8, !tbaa !11
  %19 = load ptr, ptr %8, align 8, !tbaa !21
  %20 = load i64, ptr %19, align 8, !tbaa !13
  %21 = sub i64 %20, 2
  store i64 %21, ptr %19, align 8, !tbaa !13
  %22 = load ptr, ptr %7, align 8, !tbaa !23
  %23 = load ptr, ptr %22, align 8, !tbaa !11
  %24 = icmp eq ptr %23, null
  br i1 %24, label %25, label %26

25:                                               ; preds = %5
  store i32 0, ptr %6, align 4
  store i32 1, ptr %14, align 4
  br label %67

26:                                               ; preds = %5
  %27 = load i32, ptr %11, align 4, !tbaa !25
  %28 = icmp ne i32 %27, 0
  br i1 %28, label %29, label %30

29:                                               ; preds = %26
  store i16 3, ptr %13, align 2, !tbaa !37
  br label %30

30:                                               ; preds = %29, %26
  %31 = load i16, ptr %12, align 2, !tbaa !37
  %32 = zext i16 %31 to i32
  %33 = load i16, ptr %13, align 2, !tbaa !37
  %34 = zext i16 %33 to i32
  %35 = srem i32 %32, %34
  switch i32 %35, label %63 [
    i32 0, label %36
    i32 1, label %39
    i32 2, label %42
    i32 3, label %45
    i32 4, label %48
  ]

36:                                               ; preds = %30
  %37 = load ptr, ptr %9, align 8, !tbaa !23
  store ptr @.str.12, ptr %37, align 8, !tbaa !11
  %38 = load ptr, ptr %10, align 8, !tbaa !21
  store i64 800, ptr %38, align 8, !tbaa !13
  br label %66

39:                                               ; preds = %30
  %40 = load ptr, ptr %9, align 8, !tbaa !23
  store ptr @.str.13, ptr %40, align 8, !tbaa !11
  %41 = load ptr, ptr %10, align 8, !tbaa !21
  store i64 1184, ptr %41, align 8, !tbaa !13
  br label %66

42:                                               ; preds = %30
  %43 = load ptr, ptr %9, align 8, !tbaa !23
  store ptr @.str.14, ptr %43, align 8, !tbaa !11
  %44 = load ptr, ptr %10, align 8, !tbaa !21
  store i64 1568, ptr %44, align 8, !tbaa !13
  br label %66

45:                                               ; preds = %30
  %46 = load ptr, ptr %9, align 8, !tbaa !23
  store ptr @.str.15, ptr %46, align 8, !tbaa !11
  %47 = load ptr, ptr %10, align 8, !tbaa !21
  store i64 13, ptr %47, align 8, !tbaa !13
  br label %66

48:                                               ; preds = %30
  %49 = load ptr, ptr %9, align 8, !tbaa !23
  store ptr @.str.14, ptr %49, align 8, !tbaa !11
  %50 = load ptr, ptr %7, align 8, !tbaa !23
  %51 = load ptr, ptr %50, align 8, !tbaa !11
  %52 = call ptr @OPENSSL_load_u16_le(ptr noundef %12, ptr noundef %51)
  %53 = load ptr, ptr %7, align 8, !tbaa !23
  store ptr %52, ptr %53, align 8, !tbaa !11
  %54 = load ptr, ptr %8, align 8, !tbaa !21
  %55 = load i64, ptr %54, align 8, !tbaa !13
  %56 = sub i64 %55, 2
  store i64 %56, ptr %54, align 8, !tbaa !13
  %57 = load i16, ptr %12, align 2, !tbaa !37
  %58 = zext i16 %57 to i64
  %59 = load ptr, ptr %10, align 8, !tbaa !21
  store i64 %58, ptr %59, align 8, !tbaa !13
  %60 = load ptr, ptr %10, align 8, !tbaa !21
  %61 = load i64, ptr %60, align 8, !tbaa !13
  %62 = urem i64 %61, 1024
  store i64 %62, ptr %60, align 8, !tbaa !13
  br label %66

63:                                               ; preds = %30
  %64 = load ptr, ptr %9, align 8, !tbaa !23
  store ptr null, ptr %64, align 8, !tbaa !11
  %65 = load ptr, ptr %10, align 8, !tbaa !21
  store i64 0, ptr %65, align 8, !tbaa !13
  br label %66

66:                                               ; preds = %63, %48, %45, %42, %39, %36
  store i32 1, ptr %6, align 4
  store i32 1, ptr %14, align 4
  br label %67

67:                                               ; preds = %66, %25
  call void @llvm.lifetime.end.p0(i64 2, ptr %13) #7
  call void @llvm.lifetime.end.p0(i64 2, ptr %12) #7
  %68 = load i32, ptr %6, align 4
  ret i32 %68
}

; Function Attrs: nounwind uwtable
define internal void @keygen_mlkem_real_key(ptr noundef %0, ptr noundef %1, ptr noundef %2, ptr noundef %3) #0 {
  %5 = alloca ptr, align 8
  %6 = alloca ptr, align 8
  %7 = alloca ptr, align 8
  %8 = alloca ptr, align 8
  %9 = alloca ptr, align 8
  %10 = alloca i64, align 8
  %11 = alloca ptr, align 8
  %12 = alloca ptr, align 8
  %13 = alloca i32, align 4
  store ptr %0, ptr %5, align 8, !tbaa !23
  store ptr %1, ptr %6, align 8, !tbaa !21
  store ptr %2, ptr %7, align 8, !tbaa !15
  store ptr %3, ptr %8, align 8, !tbaa !15
  call void @llvm.lifetime.start.p0(i64 8, ptr %9) #7
  store ptr null, ptr %9, align 8, !tbaa !11
  call void @llvm.lifetime.start.p0(i64 8, ptr %10) #7
  store i64 0, ptr %10, align 8, !tbaa !13
  call void @llvm.lifetime.start.p0(i64 8, ptr %11) #7
  store ptr null, ptr %11, align 8, !tbaa !29
  call void @llvm.lifetime.start.p0(i64 8, ptr %12) #7
  %14 = load ptr, ptr %8, align 8, !tbaa !15
  store ptr null, ptr %14, align 8, !tbaa !15
  %15 = load ptr, ptr %7, align 8, !tbaa !15
  store ptr null, ptr %15, align 8, !tbaa !15
  %16 = load ptr, ptr %7, align 8, !tbaa !15
  store ptr %16, ptr %12, align 8, !tbaa !31
  br label %17

17:                                               ; preds = %57, %4
  %18 = load ptr, ptr %5, align 8, !tbaa !23
  %19 = load ptr, ptr %6, align 8, !tbaa !21
  %20 = call i32 @select_keytype_and_size(ptr noundef %18, ptr noundef %19, ptr noundef %9, ptr noundef %10, i32 noundef 1)
  %21 = icmp ne i32 %20, 0
  br i1 %21, label %23, label %22

22:                                               ; preds = %17
  store i32 1, ptr %13, align 4
  br label %63

23:                                               ; preds = %17
  %24 = load ptr, ptr %9, align 8, !tbaa !11
  %25 = call ptr @EVP_PKEY_CTX_new_from_name(ptr noundef null, ptr noundef %24, ptr noundef null)
  store ptr %25, ptr %11, align 8, !tbaa !29
  %26 = load ptr, ptr %11, align 8, !tbaa !29
  %27 = icmp ne ptr %26, null
  br i1 %27, label %31, label %28

28:                                               ; preds = %23
  %29 = load ptr, ptr @stderr, align 8, !tbaa !33
  %30 = call i32 (ptr, ptr, ...) @fprintf(ptr noundef %29, ptr noundef @.str.16) #7
  store i32 1, ptr %13, align 4
  br label %63

31:                                               ; preds = %23
  %32 = load ptr, ptr %11, align 8, !tbaa !29
  %33 = call i32 @EVP_PKEY_keygen_init(ptr noundef %32)
  %34 = icmp ne i32 %33, 0
  br i1 %34, label %38, label %35

35:                                               ; preds = %31
  %36 = load ptr, ptr @stderr, align 8, !tbaa !33
  %37 = call i32 (ptr, ptr, ...) @fprintf(ptr noundef %36, ptr noundef @.str.17) #7
  br label %61

38:                                               ; preds = %31
  %39 = call ptr @EVP_PKEY_new()
  %40 = load ptr, ptr %12, align 8, !tbaa !31
  store ptr %39, ptr %40, align 8, !tbaa !27
  %41 = load ptr, ptr %12, align 8, !tbaa !31
  %42 = load ptr, ptr %41, align 8, !tbaa !27
  %43 = icmp eq ptr %42, null
  br i1 %43, label %44, label %45

44:                                               ; preds = %38
  br label %61

45:                                               ; preds = %38
  %46 = load ptr, ptr %11, align 8, !tbaa !29
  %47 = load ptr, ptr %12, align 8, !tbaa !31
  %48 = call i32 @EVP_PKEY_generate(ptr noundef %46, ptr noundef %47)
  %49 = icmp ne i32 %48, 0
  br i1 %49, label %53, label %50

50:                                               ; preds = %45
  %51 = load ptr, ptr @stderr, align 8, !tbaa !33
  %52 = call i32 (ptr, ptr, ...) @fprintf(ptr noundef %51, ptr noundef @.str.18) #7
  br label %61

53:                                               ; preds = %45
  %54 = load ptr, ptr %12, align 8, !tbaa !31
  %55 = load ptr, ptr %7, align 8, !tbaa !15
  %56 = icmp eq ptr %54, %55
  br i1 %56, label %57, label %60

57:                                               ; preds = %53
  %58 = load ptr, ptr %11, align 8, !tbaa !29
  call void @EVP_PKEY_CTX_free(ptr noundef %58)
  %59 = load ptr, ptr %8, align 8, !tbaa !15
  store ptr %59, ptr %12, align 8, !tbaa !31
  br label %17

60:                                               ; preds = %53
  br label %61

61:                                               ; preds = %60, %50, %44, %35
  %62 = load ptr, ptr %11, align 8, !tbaa !29
  call void @EVP_PKEY_CTX_free(ptr noundef %62)
  store i32 1, ptr %13, align 4
  br label %63

63:                                               ; preds = %61, %28, %22
  call void @llvm.lifetime.end.p0(i64 8, ptr %12) #7
  call void @llvm.lifetime.end.p0(i64 8, ptr %11) #7
  call void @llvm.lifetime.end.p0(i64 8, ptr %10) #7
  call void @llvm.lifetime.end.p0(i64 8, ptr %9) #7
  ret void
}