; Function Attrs: nounwind uwtable
define internal void @keygen_mlkem_real_key(ptr noundef captures(none) %0, ptr noundef captures(none) %1, ptr noundef initializes((0, 8)) %2, ptr noundef initializes((0, 8)) %3) #1 {
  store ptr null, ptr %3, align 8, !tbaa !4
  store ptr null, ptr %2, align 8, !tbaa !4
  br label %switch.lookup

switch.lookup:                                    ; preds = %30, %4
  %.0 = phi ptr [ %2, %4 ], [ %3, %30 ]
  %5 = load ptr, ptr %0, align 8, !tbaa !11
  %.0.copyload.i25.i = load i16, ptr %5, align 1
  %6 = getelementptr inbounds nuw i8, ptr %5, i64 2
  store ptr %6, ptr %0, align 8, !tbaa !11
  %7 = load i64, ptr %1, align 8, !tbaa !9
  %8 = add i64 %7, -2
  store i64 %8, ptr %1, align 8, !tbaa !9
  %9 = urem i16 %.0.copyload.i25.i, 3
  %10 = zext nneg i16 %9 to i64
  %switch.gep = getelementptr inbounds nuw [3 x ptr], ptr @switch.table.keygen_mlkem_real_key, i64 0, i64 %10
  %switch.load = load ptr, ptr %switch.gep, align 8
  %11 = tail call ptr @EVP_PKEY_CTX_new_from_name(ptr noundef null, ptr noundef nonnull %switch.load, ptr noundef null) #6
  %.not17 = icmp eq ptr %11, null
  br i1 %.not17, label %12, label %15

12:                                               ; preds = %switch.lookup
  %13 = load ptr, ptr @stderr, align 8, !tbaa !16
  %14 = tail call i64 @fwrite(ptr nonnull @.str.16, i64 23, i64 1, ptr %13) #7
  br label %31

15:                                               ; preds = %switch.lookup
  %16 = tail call i32 @EVP_PKEY_keygen_init(ptr noundef nonnull %11) #6
  %.not18 = icmp eq i32 %16, 0
  br i1 %.not18, label %17, label %20

17:                                               ; preds = %15
  %18 = load ptr, ptr @stderr, align 8, !tbaa !16
  %19 = tail call i64 @fwrite(ptr nonnull @.str.17, i64 26, i64 1, ptr %18) #7
  br label %.loopexit

20:                                               ; preds = %15
  %21 = tail call ptr @EVP_PKEY_new() #6
  store ptr %21, ptr %.0, align 8, !tbaa !18
  %22 = icmp eq ptr %21, null
  br i1 %22, label %.loopexit, label %23

23:                                               ; preds = %20
  %24 = tail call i32 @EVP_PKEY_generate(ptr noundef nonnull %11, ptr noundef nonnull %.0) #6
  %.not19 = icmp eq i32 %24, 0
  br i1 %.not19, label %25, label %28

25:                                               ; preds = %23
  %26 = load ptr, ptr @stderr, align 8, !tbaa !16
  %27 = tail call i64 @fwrite(ptr nonnull @.str.18, i64 32, i64 1, ptr %26) #7
  br label %.loopexit

28:                                               ; preds = %23
  %29 = icmp eq ptr %.0, %2
  br i1 %29, label %30, label %.loopexit

30:                                               ; preds = %28
  tail call void @EVP_PKEY_CTX_free(ptr noundef nonnull %11) #6
  br label %switch.lookup

.loopexit:                                        ; preds = %28, %20, %25, %17
  tail call void @EVP_PKEY_CTX_free(ptr noundef nonnull %11) #6
  br label %31

31:                                               ; preds = %.loopexit, %12
  ret void
}